Certificate:
    Data:
        Version: 3 (0x2)
        Serial Number:
            a5:0d:67:e5:dd:4f:d1:16
        Signature Algorithm: sha1WithRSAEncryption
        Issuer: C=CN, ST=Guangdong, O=Tencent, OU=tlinux, CN=Tencent tlinux Root/emailAddress=t_os@tencent.com
        Validity
            Not Before: Oct 15 17:34:55 2012 GMT
            Not After : Oct 15 17:34:55 2015 GMT
        Subject: C=CN, ST=Guangdong, O=Tencent, OU=tlinux, CN=Tencent tlinux Root/emailAddress=t_os@tencent.com
        Subject Public Key Info:
            Public Key Algorithm: rsaEncryption
                Public-Key: (2048 bit)
                Modulus:
                    00:b1:ff:ff:63:0a:11:1b:2b:1d:44:6d:2f:15:3d:
                    8f:fb:b8:c8:6b:ac:cb:43:37:a0:e7:59:5e:f4:e4:
                    c8:bf:50:16:c6:2f:2b:ae:c4:5e:d2:24:c5:9c:0e:
                    6e:f4:d1:71:61:d0:1a:5f:37:9f:e3:74:f4:af:46:
                    3d:d9:6f:97:1a:e2:11:0c:2d:e6:e9:50:9b:ef:7e:
                    7b:90:66:2d:ae:b0:42:cb:26:b0:09:2a:4b:23:93:
                    e8:e9:3e:1f:f2:3a:b1:57:55:21:18:2d:a1:e4:d3:
                    d0:0c:f0:4a:25:9a:b7:52:82:79:41:01:2b:2b:da:
                    67:2c:93:6f:0b:c7:fa:b9:4d:6b:3f:13:a7:74:3b:
                    08:bb:11:75:4b:9c:60:9b:d8:79:37:fb:90:5b:97:
                    37:b8:f9:6f:1f:37:46:0e:6c:03:39:0d:ee:29:17:
                    da:4f:b4:13:cc:56:e7:41:db:77:21:49:45:50:8e:
                    d4:0f:3b:11:0f:2b:b8:df:60:6c:78:34:2e:af:3e:
                    b5:e1:fd:97:15:0c:da:08:db:e7:15:51:d7:9f:12:
                    9f:74:b9:90:67:2c:62:ca:b3:ec:02:88:29:7e:cf:
                    61:51:ee:67:f1:e5:a9:30:cc:b3:e1:79:d8:75:1b:
                    19:7b:20:e3:06:bc:52:ac:87:0a:29:03:4a:b4:1a:
                    e5:49
                Exponent: 65537 (0x10001)
        X509v3 extensions:
            X509v3 Subject Key Identifier: 
                E6:FE:FB:CD:EF:14:74:F9:1B:52:BA:1D:AF:A9:C0:B0:68:90:A1:A3
            X509v3 Authority Key Identifier: 
                keyid:E6:FE:FB:CD:EF:14:74:F9:1B:52:BA:1D:AF:A9:C0:B0:68:90:A1:A3

            X509v3 Basic Constraints: 
                CA:TRUE
    Signature Algorithm: sha1WithRSAEncryption
        1d:1a:c6:93:8a:61:f4:21:e7:60:ab:e2:35:82:df:42:52:45:
        ff:c1:45:7a:b0:1f:40:fc:9d:40:aa:3e:af:a2:8a:0d:39:d7:
        9f:39:9b:4b:1b:ed:95:03:09:c5:f3:74:bd:0a:da:c2:5d:f2:
        e6:74:3d:5d:ca:b3:f3:95:8f:94:4a:50:cc:9a:d2:bd:9c:54:
        bf:23:2f:27:5f:25:02:92:3f:1d:a6:4f:b7:52:d0:4e:83:fd:
        47:17:e3:61:b0:d1:b3:03:ca:2d:6f:39:8e:be:b0:ee:dd:22:
        ef:bb:0d:d7:af:f8:6c:51:5a:c8:0c:14:52:e2:95:9b:ea:b2:
        52:dc:29:fc:1d:fe:ab:14:f2:df:93:ca:e6:66:a6:1e:3c:c0:
        22:1f:95:e6:73:a6:7e:c3:7b:47:94:95:48:30:18:77:d0:64:
        db:12:fd:77:1e:54:3a:50:a6:62:35:df:96:8d:4a:73:3c:30:
        38:64:a7:7b:84:7d:33:c8:a7:d8:db:6b:d5:ac:44:28:ab:c6:
        29:40:ab:36:1d:63:ac:98:1e:17:ed:20:0e:07:14:ce:1a:f5:
        6e:23:29:a9:6f:a7:b1:e1:2d:d7:a0:e3:60:2e:71:31:1e:c3:
        c5:15:9c:17:02:0b:36:c7:8a:93:74:18:2e:f1:a2:ff:7d:b0:
        b5:0b:f3:e7
-----BEGIN CERTIFICATE-----
MIID2zCCAsOgAwIBAgIJAKUNZ+XdT9EWMA0GCSqGSIb3DQEBBQUAMIGDMQswCQYD
VQQGEwJDTjESMBAGA1UECAwJR3Vhbmdkb25nMRAwDgYDVQQKDAdUZW5jZW50MQ8w
DQYDVQQLDAZ0bGludXgxHDAaBgNVBAMME1RlbmNlbnQgdGxpbnV4IFJvb3QxHzAd
BgkqhkiG9w0BCQEWEHRfb3NAdGVuY2VudC5jb20wHhcNMTIxMDE1MTczNDU1WhcN
MTUxMDE1MTczNDU1WjCBgzELMAkGA1UEBhMCQ04xEjAQBgNVBAgMCUd1YW5nZG9u
ZzEQMA4GA1UECgwHVGVuY2VudDEPMA0GA1UECwwGdGxpbnV4MRwwGgYDVQQDDBNU
ZW5jZW50IHRsaW51eCBSb290MR8wHQYJKoZIhvcNAQkBFhB0X29zQHRlbmNlbnQu
Y29tMIIBIjANBgkqhkiG9w0BAQEFAAOCAQ8AMIIBCgKCAQEAsf//YwoRGysdRG0v
FT2P+7jIa6zLQzeg51le9OTIv1AWxi8rrsRe0iTFnA5u9NFxYdAaXzef43T0r0Y9
2W+XGuIRDC3m6VCb7357kGYtrrBCyyawCSpLI5Po6T4f8jqxV1UhGC2h5NPQDPBK
JZq3UoJ5QQErK9pnLJNvC8f6uU1rPxOndDsIuxF1S5xgm9h5N/uQW5c3uPlvHzdG
DmwDOQ3uKRfaT7QTzFbnQdt3IUlFUI7UDzsRDyu432BseDQurz614f2XFQzaCNvn
FVHXnxKfdLmQZyxiyrPsAogpfs9hUe5n8eWpMMyz4XnYdRsZeyDjBrxSrIcKKQNK
tBrlSQIDAQABo1AwTjAdBgNVHQ4EFgQU5v77ze8UdPkbUrodr6nAsGiQoaMwHwYD
VR0jBBgwFoAU5v77ze8UdPkbUrodr6nAsGiQoaMwDAYDVR0TBAUwAwEB/zANBgkq
hkiG9w0BAQUFAAOCAQEAHRrGk4ph9CHnYKviNYLfQlJF/8FFerAfQPydQKo+r6KK
DTnXnzmbSxvtlQMJxfN0vQrawl3y5nQ9Xcqz85WPlEpQzJrSvZxUvyMvJ18lApI/
HaZPt1LQToP9RxfjYbDRswPKLW85jr6w7t0i77sN16/4bFFayAwUUuKVm+qyUtwp
/B3+qxTy35PK5mamHjzAIh+V5nOmfsN7R5SVSDAYd9Bk2xL9dx5UOlCmYjXflo1K
czwwOGSne4R9M8in2Ntr1axEKKvGKUCrNh1jrJgeF+0gDgcUzhr1biMpqW+nseEt
16DjYC5xMR7DxRWcFwILNseKk3QYLvGi/32wtQvz5w==
-----END CERTIFICATE-----
